; Function Attrs: nounwind uwtable
define internal ptr @unicode_richcompare(ptr readnone captures(none) %0, ptr noundef %1) #0 {
  %3 = alloca ptr, align 8
  %4 = alloca ptr, align 8
  %5 = alloca i32, align 4
  call void @llvm.lifetime.start.p0(i64 8, ptr nonnull %3) #4
  call void @llvm.lifetime.start.p0(i64 8, ptr nonnull %4) #4
  call void @llvm.lifetime.start.p0(i64 4, ptr nonnull %5) #4
  %6 = call i32 (ptr, ptr, ...) @PyArg_ParseTuple(ptr noundef %1, ptr noundef nonnull @.str.397, ptr noundef nonnull %3, ptr noundef nonnull %4, ptr noundef nonnull %5) #4
  %.not = icmp eq i32 %6, 0
  br i1 %.not, label %22, label %7

7:                                                ; preds = %2
  %8 = load ptr, ptr %3, align 8, !tbaa !8
  %9 = call ptr @Py_GetConstantBorrowed(i32 noundef 0) #4
  %10 = icmp eq ptr %8, %9
  br i1 %10, label %11, label %12

11:                                               ; preds = %7
  store ptr null, ptr %3, align 8, !tbaa !8
  br label %12

12:                                               ; preds = %7, %11
  %13 = load ptr, ptr %4, align 8, !tbaa !8
  %14 = call ptr @Py_GetConstantBorrowed(i32 noundef 0) #4
  %15 = icmp eq ptr %13, %14
  br i1 %15, label %16, label %._crit_edge

._crit_edge:                                      ; preds = %12
  %.pre = load ptr, ptr %4, align 8, !tbaa !8
  br label %17

16:                                               ; preds = %12
  store ptr null, ptr %4, align 8, !tbaa !8
  br label %17

17:                                               ; preds = %._crit_edge, %16
  %18 = phi ptr [ %.pre, %._crit_edge ], [ null, %16 ]
  %19 = load ptr, ptr %3, align 8, !tbaa !8
  %20 = load i32, ptr %5, align 4, !tbaa !12
  %21 = call ptr @PyUnicode_RichCompare(ptr noundef %19, ptr noundef %18, i32 noundef %20) #4
  br label %22

22:                                               ; preds = %2, %17
  %.0 = phi ptr [ %21, %17 ], [ null, %2 ]
  call void @llvm.lifetime.end.p0(i64 4, ptr nonnull %5) #4
  call void @llvm.lifetime.end.p0(i64 8, ptr nonnull %4) #4
  call void @llvm.lifetime.end.p0(i64 8, ptr nonnull %3) #4
  ret ptr %.0
}